; ModuleID = '50/292.c'
source_filename = "50/292.c"
target datalayout = "e-m:e-p270:32:32-p271:32:32-p272:64:64-i64:64-f80:128-n8:16:32:64-S128"
target triple = "x86_64-pc-linux-gnu"

@.str = private unnamed_addr constant [3 x i8] c"%d\00", align 1
@.str.1 = private unnamed_addr constant [3 x i8] c"1\0A\00", align 1
@.str.2 = private unnamed_addr constant [3 x i8] c"10\00", align 1
@.str.3 = private unnamed_addr constant [3 x i8] c"9\0A\00", align 1
@.str.4 = private unnamed_addr constant [3 x i8] c"12\00", align 1
@.str.5 = private unnamed_addr constant [3 x i8] c"2\0A\00", align 1
@.str.6 = private unnamed_addr constant [3 x i8] c"3\0A\00", align 1
@.str.7 = private unnamed_addr constant [4 x i8] c"11\0A\00", align 1
@.str.8 = private unnamed_addr constant [3 x i8] c"8\0A\00", align 1
@.str.9 = private unnamed_addr constant [3 x i8] c"6\0A\00", align 1
@.str.10 = private unnamed_addr constant [3 x i8] c"4\0A\00", align 1
@.str.11 = private unnamed_addr constant [2 x i8] c"7\00", align 1
@.str.12 = private unnamed_addr constant [2 x i8] c"5\00", align 1

; Function Attrs: noinline nounwind uwtable
define dso_local void @main() #0 {
  %1 = alloca i32, align 4
  %2 = call i32 (i8*, ...) @__isoc99_scanf(i8* getelementptr inbounds ([3 x i8], [3 x i8]* @.str, i64 0, i64 0), i32* %1)
  %3 = load i32, i32* %1, align 4
  %4 = icmp eq i32 %3, 7
  br i1 %4, label %5, label %8

5:                                                ; preds = %0
  %6 = call i32 (i8*, ...) @printf(i8* getelementptr inbounds ([3 x i8], [3 x i8]* @.str.1, i64 0, i64 0))
  %7 = call i32 (i8*, ...) @printf(i8* getelementptr inbounds ([3 x i8], [3 x i8]* @.str.2, i64 0, i64 0))
  br label %8

8:                                                ; preds = %5, %0
  %9 = load i32, i32* %1, align 4
  %10 = icmp eq i32 %9, 2
  br i1 %10, label %11, label %14

11:                                               ; preds = %8
  %12 = call i32 (i8*, ...) @printf(i8* getelementptr inbounds ([3 x i8], [3 x i8]* @.str.3, i64 0, i64 0))
  %13 = call i32 (i8*, ...) @printf(i8* getelementptr inbounds ([3 x i8], [3 x i8]* @.str.4, i64 0, i64 0))
  br label %14

14:                                               ; preds = %11, %8
  %15 = load i32, i32* %1, align 4
  %16 = icmp eq i32 %15, 4
  br i1 %16, label %17, label %21

17:                                               ; preds = %14
  %18 = call i32 (i8*, ...) @printf(i8* getelementptr inbounds ([3 x i8], [3 x i8]* @.str.5, i64 0, i64 0))
  %19 = call i32 (i8*, ...) @printf(i8* getelementptr inbounds ([3 x i8], [3 x i8]* @.str.6, i64 0, i64 0))
  %20 = call i32 (i8*, ...) @printf(i8* getelementptr inbounds ([4 x i8], [4 x i8]* @.str.7, i64 0, i64 0))
  br label %21

21:                                               ; preds = %17, %14
  %22 = load i32, i32* %1, align 4
  %23 = icmp eq i32 %22, 5
  br i1 %23, label %24, label %26

24:                                               ; preds = %21
  %25 = call i32 (i8*, ...) @printf(i8* getelementptr inbounds ([3 x i8], [3 x i8]* @.str.8, i64 0, i64 0))
  br label %26

26:                                               ; preds = %24, %21
  %27 = load i32, i32* %1, align 4
  %28 = icmp eq i32 %27, 3
  br i1 %28, label %29, label %31

29:                                               ; preds = %26
  %30 = call i32 (i8*, ...) @printf(i8* getelementptr inbounds ([3 x i8], [3 x i8]* @.str.9, i64 0, i64 0))
  br label %31

31:                                               ; preds = %29, %26
  %32 = load i32, i32* %1, align 4
  %33 = icmp eq i32 %32, 1
  br i1 %33, label %34, label %37

34:                                               ; preds = %31
  %35 = call i32 (i8*, ...) @printf(i8* getelementptr inbounds ([3 x i8], [3 x i8]* @.str.10, i64 0, i64 0))
  %36 = call i32 (i8*, ...) @printf(i8* getelementptr inbounds ([2 x i8], [2 x i8]* @.str.11, i64 0, i64 0))
  br label %37

37:                                               ; preds = %34, %31
  %38 = load i32, i32* %1, align 4
  %39 = icmp eq i32 %38, 6
  br i1 %39, label %40, label %42

40:                                               ; preds = %37
  %41 = call i32 (i8*, ...) @printf(i8* getelementptr inbounds ([2 x i8], [2 x i8]* @.str.12, i64 0, i64 0))
  br label %42

42:                                               ; preds = %40, %37
  ret void
}

declare dso_local i32 @__isoc99_scanf(i8*, ...) #1

declare dso_local i32 @printf(i8*, ...) #1


!llvm.module.flags = !{!0}
!llvm.ident = !{!1}

!0 = !{i32 1, !"wchar_size", i32 4}
!1 = !{!"clang version 10.0.0-4ubuntu1 "}
